target datalayout = "e-m:e-p270:32:32-p271:32:32-p272:64:64-i64:64-i128:128-f80:128-n8:16:32:64-S128"
target triple = "x86_64-pc-linux-gnu"

%struct.Abc_Obj_t_ = type { ptr, ptr, i32, i32, %struct.Vec_Int_t_, %struct.Vec_Int_t_, %union.anon, %union.anon.0 }
%struct.Vec_Int_t_ = type { i32, i32, ptr }
%union.anon = type { ptr }
%union.anon.0 = type { ptr }
%struct.Vec_Ptr_t_ = type { i32, i32, ptr }

; Function Attrs: inlinehint nounwind uwtable
define internal void @Vec_PtrClear(ptr noundef %0) #3 {
  %2 = alloca ptr, align 8
  store ptr %0, ptr %2, align 8, !tbaa !20
  %3 = load ptr, ptr %2, align 8, !tbaa !20
  %4 = getelementptr inbounds nuw %struct.Vec_Ptr_t_, ptr %3, i32 0, i32 1
  store i32 0, ptr %4, align 4, !tbaa !74
  ret void
}

; Function Attrs: inlinehint nounwind uwtable
define internal ptr @Vec_PtrEntry(ptr noundef %0, i32 noundef %1) #3 {
  %3 = alloca ptr, align 8
  %4 = alloca i32, align 4
  store ptr %0, ptr %3, align 8, !tbaa !20
  store i32 %1, ptr %4, align 4, !tbaa !8
  %5 = load ptr, ptr %3, align 8, !tbaa !20
  %6 = getelementptr inbounds nuw %struct.Vec_Ptr_t_, ptr %5, i32 0, i32 2
  %7 = load ptr, ptr %6, align 8, !tbaa !93
  %8 = load i32, ptr %4, align 4, !tbaa !8
  %9 = sext i32 %8 to i64
  %10 = getelementptr inbounds ptr, ptr %7, i64 %9
  %11 = load ptr, ptr %10, align 8, !tbaa !95
  ret ptr %11
}

; Function Attrs: inlinehint nounwind uwtable
define internal i32 @Vec_PtrSize(ptr noundef %0) #3 {
  %2 = alloca ptr, align 8
  store ptr %0, ptr %2, align 8, !tbaa !20
  %3 = load ptr, ptr %2, align 8, !tbaa !20
  %4 = getelementptr inbounds nuw %struct.Vec_Ptr_t_, ptr %3, i32 0, i32 1
  %5 = load i32, ptr %4, align 4, !tbaa !74
  ret i32 %5
}

; Function Attrs: nounwind uwtable
define void @Abc_NodeSuperChoiceCollect(ptr noundef %0, ptr noundef %1, ptr noundef %2) #0 {
  %4 = alloca ptr, align 8
  %5 = alloca ptr, align 8
  %6 = alloca ptr, align 8
  %7 = alloca ptr, align 8
  %8 = alloca i32, align 4
  %9 = alloca i32, align 4
  store ptr %0, ptr %4, align 8, !tbaa !10
  store ptr %1, ptr %5, align 8, !tbaa !20
  store ptr %2, ptr %6, align 8, !tbaa !20
  call void @llvm.lifetime.start.p0(i64 8, ptr %7) #9
  call void @llvm.lifetime.start.p0(i64 4, ptr %8) #9
  call void @llvm.lifetime.start.p0(i64 4, ptr %9) #9
  %10 = load ptr, ptr %5, align 8, !tbaa !20
  %11 = call i32 @Vec_PtrSize(ptr noundef %10)
  store i32 %11, ptr %9, align 4, !tbaa !8
  store i32 0, ptr %8, align 4, !tbaa !8
  br label %12

12:                                               ; preds = %34, %3
  %13 = load i32, ptr %8, align 4, !tbaa !8
  %14 = load ptr, ptr %5, align 8, !tbaa !20
  %15 = call i32 @Vec_PtrSize(ptr noundef %14)
  %16 = icmp slt i32 %13, %15
  br i1 %16, label %17, label %21

17:                                               ; preds = %12
  %18 = load ptr, ptr %5, align 8, !tbaa !20
  %19 = load i32, ptr %8, align 4, !tbaa !8
  %20 = call ptr @Vec_PtrEntry(ptr noundef %18, i32 noundef %19)
  store ptr %20, ptr %7, align 8, !tbaa !10
  br label %21

21:                                               ; preds = %17, %12
  %22 = phi i1 [ false, %12 ], [ true, %17 ]
  br i1 %22, label %23, label %37

23:                                               ; preds = %21
  %24 = load ptr, ptr %7, align 8, !tbaa !10
  %25 = getelementptr inbounds nuw %struct.Abc_Obj_t_, ptr %24, i32 0, i32 3
  %26 = load i32, ptr %25, align 4
  %27 = and i32 %26, -65
  %28 = or i32 %27, 64
  store i32 %28, ptr %25, align 4
  %29 = load ptr, ptr %7, align 8, !tbaa !10
  %30 = getelementptr inbounds nuw %struct.Abc_Obj_t_, ptr %29, i32 0, i32 3
  %31 = load i32, ptr %30, align 4
  %32 = and i32 %31, -33
  %33 = or i32 %32, 32
  store i32 %33, ptr %30, align 4
  br label %34

34:                                               ; preds = %23
  %35 = load i32, ptr %8, align 4, !tbaa !8
  %36 = add nsw i32 %35, 1
  store i32 %36, ptr %8, align 4, !tbaa !8
  br label %12, !llvm.loop !106

37:                                               ; preds = %21
  %38 = load ptr, ptr %6, align 8, !tbaa !20
  call void @Vec_PtrClear(ptr noundef %38)
  %39 = load ptr, ptr %5, align 8, !tbaa !20
  call void @Vec_PtrClear(ptr noundef %39)
  %40 = load ptr, ptr %4, align 8, !tbaa !10
  %41 = load ptr, ptr %5, align 8, !tbaa !20
  %42 = load ptr, ptr %6, align 8, !tbaa !20
  call void @Abc_NodeSuperChoiceCollect_rec(ptr noundef %40, ptr noundef %41, ptr noundef %42)
  store i32 0, ptr %8, align 4, !tbaa !8
  br label %43

43:                                               ; preds = %60, %37
  %44 = load i32, ptr %8, align 4, !tbaa !8
  %45 = load ptr, ptr %5, align 8, !tbaa !20
  %46 = call i32 @Vec_PtrSize(ptr noundef %45)
  %47 = icmp slt i32 %44, %46
  br i1 %47, label %48, label %52

48:                                               ; preds = %43
  %49 = load ptr, ptr %5, align 8, !tbaa !20
  %50 = load i32, ptr %8, align 4, !tbaa !8
  %51 = call ptr @Vec_PtrEntry(ptr noundef %49, i32 noundef %50)
  store ptr %51, ptr %7, align 8, !tbaa !10
  br label %52

52:                                               ; preds = %48, %43
  %53 = phi i1 [ false, %43 ], [ true, %48 ]
  br i1 %53, label %54, label %63

54:                                               ; preds = %52
  %55 = load ptr, ptr %7, align 8, !tbaa !10
  %56 = getelementptr inbounds nuw %struct.Abc_Obj_t_, ptr %55, i32 0, i32 3
  %57 = load i32, ptr %56, align 4
  %58 = and i32 %57, -65
  %59 = or i32 %58, 0
  store i32 %59, ptr %56, align 4
  br label %60

60:                                               ; preds = %54
  %61 = load i32, ptr %8, align 4, !tbaa !8
  %62 = add nsw i32 %61, 1
  store i32 %62, ptr %8, align 4, !tbaa !8
  br label %43, !llvm.loop !107

63:                                               ; preds = %52
  store i32 0, ptr %8, align 4, !tbaa !8
  br label %64

64:                                               ; preds = %81, %63
  %65 = load i32, ptr %8, align 4, !tbaa !8
  %66 = load ptr, ptr %6, align 8, !tbaa !20
  %67 = call i32 @Vec_PtrSize(ptr noundef %66)
  %68 = icmp slt i32 %65, %67
  br i1 %68, label %69, label %73

69:                                               ; preds = %64
  %70 = load ptr, ptr %6, align 8, !tbaa !20
  %71 = load i32, ptr %8, align 4, !tbaa !8
  %72 = call ptr @Vec_PtrEntry(ptr noundef %70, i32 noundef %71)
  store ptr %72, ptr %7, align 8, !tbaa !10
  br label %73

73:                                               ; preds = %69, %64
  %74 = phi i1 [ false, %64 ], [ true, %69 ]
  br i1 %74, label %75, label %84

75:                                               ; preds = %73
  %76 = load ptr, ptr %7, align 8, !tbaa !10
  %77 = getelementptr inbounds nuw %struct.Abc_Obj_t_, ptr %76, i32 0, i32 3
  %78 = load i32, ptr %77, align 4
  %79 = and i32 %78, -65
  %80 = or i32 %79, 0
  store i32 %80, ptr %77, align 4
  br label %81

81:                                               ; preds = %75
  %82 = load i32, ptr %8, align 4, !tbaa !8
  %83 = add nsw i32 %82, 1
  store i32 %83, ptr %8, align 4, !tbaa !8
  br label %64, !llvm.loop !108

84:                                               ; preds = %73
  call void @llvm.lifetime.end.p0(i64 4, ptr %9) #9
  call void @llvm.lifetime.end.p0(i64 4, ptr %8) #9
  call void @llvm.lifetime.end.p0(i64 8, ptr %7) #9
  ret void
}